target datalayout = "e-m:e-p270:32:32-p271:32:32-p272:64:64-i64:64-i128:128-f80:128-n8:16:32:64-S128"
target triple = "x86_64-pc-linux-gnu"

%struct.VideoRateAbbr = type { ptr, %struct.AVRational }
%struct.AVRational = type { i32, i32 }

@.str = private unnamed_addr constant [8 x i8] c"%d:%d%c\00", align 1

; Function Attrs: nounwind uwtable
define i32 @av_parse_ratio(ptr noundef %0, ptr noundef %1, i32 noundef %2, i32 noundef %3, ptr noundef %4) #0 {
  %6 = alloca i32, align 4
  %7 = alloca ptr, align 8
  %8 = alloca ptr, align 8
  %9 = alloca i32, align 4
  %10 = alloca i32, align 4
  %11 = alloca ptr, align 8
  %12 = alloca i8, align 1
  %13 = alloca i32, align 4
  %14 = alloca double, align 8
  %15 = alloca i32, align 4
  %16 = alloca %struct.AVRational, align 4
  store ptr %0, ptr %7, align 8, !tbaa !4
  store ptr %1, ptr %8, align 8, !tbaa !9
  store i32 %2, ptr %9, align 4, !tbaa !11
  store i32 %3, ptr %10, align 4, !tbaa !11
  store ptr %4, ptr %11, align 8, !tbaa !13
  call void @llvm.lifetime.start.p0(i64 1, ptr %12) #10
  call void @llvm.lifetime.start.p0(i64 4, ptr %13) #10
  %17 = load ptr, ptr %8, align 8, !tbaa !9
  %18 = load ptr, ptr %7, align 8, !tbaa !4
  %19 = getelementptr inbounds nuw %struct.AVRational, ptr %18, i32 0, i32 0
  %20 = load ptr, ptr %7, align 8, !tbaa !4
  %21 = getelementptr inbounds nuw %struct.AVRational, ptr %20, i32 0, i32 1
  %22 = call i32 (ptr, ptr, ...) @__isoc99_sscanf(ptr noundef %17, ptr noundef @.str, ptr noundef %19, ptr noundef %21, ptr noundef %12) #10
  %23 = icmp ne i32 %22, 2
  br i1 %23, label %24, label %41

24:                                               ; preds = %5
  call void @llvm.lifetime.start.p0(i64 8, ptr %14) #10
  %25 = load ptr, ptr %8, align 8, !tbaa !9
  %26 = load i32, ptr %10, align 4, !tbaa !11
  %27 = load ptr, ptr %11, align 8, !tbaa !13
  %28 = call i32 @av_expr_parse_and_eval(ptr noundef %14, ptr noundef %25, ptr noundef null, ptr noundef null, ptr noundef null, ptr noundef null, ptr noundef null, ptr noundef null, ptr noundef null, i32 noundef %26, ptr noundef %27)
  store i32 %28, ptr %13, align 4, !tbaa !11
  %29 = load i32, ptr %13, align 4, !tbaa !11
  %30 = icmp slt i32 %29, 0
  br i1 %30, label %31, label %33

31:                                               ; preds = %24
  %32 = load i32, ptr %13, align 4, !tbaa !11
  store i32 %32, ptr %6, align 4
  store i32 1, ptr %15, align 4
  br label %38

33:                                               ; preds = %24
  %34 = load ptr, ptr %7, align 8, !tbaa !4
  call void @llvm.lifetime.start.p0(i64 8, ptr %16) #10
  %35 = load double, ptr %14, align 8, !tbaa !14
  %36 = load i32, ptr %9, align 4, !tbaa !11
  %37 = call i64 @av_d2q(double noundef %35, i32 noundef %36) #11
  store i64 %37, ptr %16, align 4
  call void @llvm.memcpy.p0.p0.i64(ptr align 4 %34, ptr align 4 %16, i64 8, i1 false), !tbaa.struct !16
  call void @llvm.lifetime.end.p0(i64 8, ptr %16) #10
  store i32 0, ptr %15, align 4
  br label %38

38:                                               ; preds = %33, %31
  call void @llvm.lifetime.end.p0(i64 8, ptr %14) #10
  %39 = load i32, ptr %15, align 4
  switch i32 %39, label %58 [
    i32 0, label %40
  ]

40:                                               ; preds = %38
  br label %57

41:                                               ; preds = %5
  %42 = load ptr, ptr %7, align 8, !tbaa !4
  %43 = getelementptr inbounds nuw %struct.AVRational, ptr %42, i32 0, i32 0
  %44 = load ptr, ptr %7, align 8, !tbaa !4
  %45 = getelementptr inbounds nuw %struct.AVRational, ptr %44, i32 0, i32 1
  %46 = load ptr, ptr %7, align 8, !tbaa !4
  %47 = getelementptr inbounds nuw %struct.AVRational, ptr %46, i32 0, i32 0
  %48 = load i32, ptr %47, align 4, !tbaa !17
  %49 = sext i32 %48 to i64
  %50 = load ptr, ptr %7, align 8, !tbaa !4
  %51 = getelementptr inbounds nuw %struct.AVRational, ptr %50, i32 0, i32 1
  %52 = load i32, ptr %51, align 4, !tbaa !19
  %53 = sext i32 %52 to i64
  %54 = load i32, ptr %9, align 4, !tbaa !11
  %55 = sext i32 %54 to i64
  %56 = call i32 @av_reduce(ptr noundef %43, ptr noundef %45, i64 noundef %49, i64 noundef %53, i64 noundef %55)
  br label %57

57:                                               ; preds = %41, %40
  store i32 0, ptr %6, align 4
  store i32 1, ptr %15, align 4
  br label %58

58:                                               ; preds = %57, %38
  call void @llvm.lifetime.end.p0(i64 4, ptr %13) #10
  call void @llvm.lifetime.end.p0(i64 1, ptr %12) #10
  %59 = load i32, ptr %6, align 4
  ret i32 %59
}

; Function Attrs: nounwind uwtable
define i32 @av_parse_video_rate(ptr noundef %0, ptr noundef %1) #0 {
  %3 = alloca i32, align 4
  %4 = alloca ptr, align 8
  %5 = alloca ptr, align 8
  %6 = alloca i32, align 4
  %7 = alloca i32, align 4
  %8 = alloca i32, align 4
  %9 = alloca i32, align 4
  store ptr %0, ptr %4, align 8, !tbaa !4
  store ptr %1, ptr %5, align 8, !tbaa !9
  call void @llvm.lifetime.start.p0(i64 4, ptr %6) #10
  call void @llvm.lifetime.start.p0(i64 4, ptr %7) #10
  call void @llvm.lifetime.start.p0(i64 4, ptr %8) #10
  store i32 8, ptr %8, align 4, !tbaa !11
  store i32 0, ptr %6, align 4, !tbaa !11
  br label %10

10:                                               ; preds = %30, %2
  %11 = load i32, ptr %6, align 4, !tbaa !11
  %12 = load i32, ptr %8, align 4, !tbaa !11
  %13 = icmp slt i32 %11, %12
  br i1 %13, label %14, label %33

14:                                               ; preds = %10
  %15 = load i32, ptr %6, align 4, !tbaa !11
  %16 = sext i32 %15 to i64
  %17 = getelementptr inbounds [8 x %struct.VideoRateAbbr], ptr @video_rate_abbrs, i64 0, i64 %16
  %18 = getelementptr inbounds nuw %struct.VideoRateAbbr, ptr %17, i32 0, i32 0
  %19 = load ptr, ptr %18, align 16, !tbaa !29
  %20 = load ptr, ptr %5, align 8, !tbaa !9
  %21 = call i32 @strcmp(ptr noundef %19, ptr noundef %20) #12
  %22 = icmp ne i32 %21, 0
  br i1 %22, label %29, label %23

23:                                               ; preds = %14
  %24 = load ptr, ptr %4, align 8, !tbaa !4
  %25 = load i32, ptr %6, align 4, !tbaa !11
  %26 = sext i32 %25 to i64
  %27 = getelementptr inbounds [8 x %struct.VideoRateAbbr], ptr @video_rate_abbrs, i64 0, i64 %26
  %28 = getelementptr inbounds nuw %struct.VideoRateAbbr, ptr %27, i32 0, i32 1
  call void @llvm.memcpy.p0.p0.i64(ptr align 4 %24, ptr align 8 %28, i64 8, i1 false), !tbaa.struct !16
  store i32 0, ptr %3, align 4
  store i32 1, ptr %9, align 4
  br label %70

29:                                               ; preds = %14
  br label %30

30:                                               ; preds = %29
  %31 = load i32, ptr %6, align 4, !tbaa !11
  %32 = add nsw i32 %31, 1
  store i32 %32, ptr %6, align 4, !tbaa !11
  br label %10, !llvm.loop !31

33:                                               ; preds = %10
  %34 = load ptr, ptr %4, align 8, !tbaa !4
  %35 = load ptr, ptr %5, align 8, !tbaa !9
  %36 = call i32 @av_parse_ratio(ptr noundef %34, ptr noundef %35, i32 noundef 1001000, i32 noundef 64, ptr noundef null)
  store i32 %36, ptr %7, align 4, !tbaa !11
  %37 = icmp slt i32 %36, 0
  br i1 %37, label %38, label %40

38:                                               ; preds = %33
  %39 = load i32, ptr %7, align 4, !tbaa !11
  store i32 %39, ptr %3, align 4
  store i32 1, ptr %9, align 4
  br label %70

40:                                               ; preds = %33
  %41 = load ptr, ptr %4, align 8, !tbaa !4
  %42 = getelementptr inbounds nuw %struct.AVRational, ptr %41, i32 0, i32 0
  %43 = load i32, ptr %42, align 4, !tbaa !17
  %44 = icmp ne i32 %43, 0
  br i1 %44, label %45, label %50

45:                                               ; preds = %40
  %46 = load ptr, ptr %4, align 8, !tbaa !4
  %47 = getelementptr inbounds nuw %struct.AVRational, ptr %46, i32 0, i32 1
  %48 = load i32, ptr %47, align 4, !tbaa !19
  %49 = icmp ne i32 %48, 0
  br i1 %49, label %58, label %50

50:                                               ; preds = %45, %40
  %51 = load ptr, ptr %4, align 8, !tbaa !4
  %52 = load ptr, ptr %5, align 8, !tbaa !9
  %53 = call i32 @av_parse_ratio(ptr noundef %51, ptr noundef %52, i32 noundef 2147483647, i32 noundef 64, ptr noundef null)
  store i32 %53, ptr %7, align 4, !tbaa !11
  %54 = icmp slt i32 %53, 0
  br i1 %54, label %55, label %57

55:                                               ; preds = %50
  %56 = load i32, ptr %7, align 4, !tbaa !11
  store i32 %56, ptr %3, align 4
  store i32 1, ptr %9, align 4
  br label %70

57:                                               ; preds = %50
  br label %58

58:                                               ; preds = %57, %45
  %59 = load ptr, ptr %4, align 8, !tbaa !4
  %60 = getelementptr inbounds nuw %struct.AVRational, ptr %59, i32 0, i32 0
  %61 = load i32, ptr %60, align 4, !tbaa !17
  %62 = icmp sle i32 %61, 0
  br i1 %62, label %68, label %63

63:                                               ; preds = %58
  %64 = load ptr, ptr %4, align 8, !tbaa !4
  %65 = getelementptr inbounds nuw %struct.AVRational, ptr %64, i32 0, i32 1
  %66 = load i32, ptr %65, align 4, !tbaa !19
  %67 = icmp sle i32 %66, 0
  br i1 %67, label %68, label %69

68:                                               ; preds = %63, %58
  store i32 -22, ptr %3, align 4
  store i32 1, ptr %9, align 4
  br label %70

69:                                               ; preds = %63
  store i32 0, ptr %3, align 4
  store i32 1, ptr %9, align 4
  br label %70

70:                                               ; preds = %69, %68, %55, %38, %23
  call void @llvm.lifetime.end.p0(i64 4, ptr %8) #10
  call void @llvm.lifetime.end.p0(i64 4, ptr %7) #10
  call void @llvm.lifetime.end.p0(i64 4, ptr %6) #10
  %71 = load i32, ptr %3, align 4
  ret i32 %71
}