; Function Attrs: nounwind uwtable
define range(i32 -2147483648, 1) i32 @av_parse_video_rate(ptr noundef %0, ptr noundef %1) local_unnamed_addr #0 {
  %3 = alloca i8, align 1
  %4 = alloca double, align 8
  %5 = alloca i8, align 1
  %6 = alloca double, align 8
  br label %8

7:                                                ; preds = %8
  %indvars.iv.next = add nuw nsw i64 %indvars.iv, 1
  %exitcond.not = icmp eq i64 %indvars.iv.next, 8
  br i1 %exitcond.not, label %15, label %8, !llvm.loop !23

8:                                                ; preds = %2, %7
  %indvars.iv = phi i64 [ 0, %2 ], [ %indvars.iv.next, %7 ]
  %9 = getelementptr inbounds nuw [8 x %struct.VideoRateAbbr], ptr @video_rate_abbrs, i64 0, i64 %indvars.iv
  %10 = load ptr, ptr %9, align 16, !tbaa !24
  %11 = tail call i32 @strcmp(ptr noundef nonnull dereferenceable(1) %10, ptr noundef nonnull dereferenceable(1) %1) #18
  %.not21 = icmp eq i32 %11, 0
  br i1 %.not21, label %12, label %7

12:                                               ; preds = %8
  %13 = getelementptr inbounds nuw i8, ptr %9, i64 8
  %14 = load i64, ptr %13, align 8
  store i64 %14, ptr %0, align 4
  br label %55

15:                                               ; preds = %7
  call void @llvm.lifetime.start.p0(i64 1, ptr nonnull %5) #16
  %16 = getelementptr inbounds nuw i8, ptr %0, i64 4
  %17 = call i32 (ptr, ptr, ...) @__isoc99_sscanf(ptr noundef nonnull %1, ptr noundef nonnull @.str, ptr noundef %0, ptr noundef nonnull %16, ptr noundef nonnull %5) #16
  %.not.i = icmp eq i32 %17, 2
  br i1 %.not.i, label %25, label %18

18:                                               ; preds = %15
  call void @llvm.lifetime.start.p0(i64 8, ptr nonnull %6) #16
  %19 = call i32 @av_expr_parse_and_eval(ptr noundef nonnull %6, ptr noundef nonnull %1, ptr noundef null, ptr noundef null, ptr noundef null, ptr noundef null, ptr noundef null, ptr noundef null, ptr noundef null, i32 noundef 64, ptr noundef null) #16
  %20 = icmp sgt i32 %19, -1
  br i1 %20, label %21, label %av_parse_ratio.exit

21:                                               ; preds = %18
  %22 = load double, ptr %6, align 8, !tbaa !4
  %23 = call i64 @av_d2q(double noundef %22, i32 noundef 1001000) #17
  store i64 %23, ptr %0, align 4
  call void @llvm.lifetime.end.p0(i64 8, ptr nonnull %6) #16
  %24 = trunc i64 %23 to i32
  br label %31

25:                                               ; preds = %15
  %26 = load i32, ptr %0, align 4, !tbaa !8
  %27 = sext i32 %26 to i64
  %28 = load i32, ptr %16, align 4, !tbaa !11
  %29 = sext i32 %28 to i64
  %30 = call i32 @av_reduce(ptr noundef nonnull %0, ptr noundef nonnull %16, i64 noundef %27, i64 noundef %29, i64 noundef 1001000) #16
  %.pre = load i32, ptr %0, align 4, !tbaa !8
  br label %31

av_parse_ratio.exit:                              ; preds = %18
  call void @llvm.lifetime.end.p0(i64 8, ptr nonnull %6) #16
  call void @llvm.lifetime.end.p0(i64 1, ptr nonnull %5) #16
  br label %55

31:                                               ; preds = %21, %25
  %32 = phi i32 [ %24, %21 ], [ %.pre, %25 ]
  call void @llvm.lifetime.end.p0(i64 1, ptr nonnull %5) #16
  %.not = icmp eq i32 %32, 0
  br i1 %.not, label %35, label %33

33:                                               ; preds = %31
  %34 = load i32, ptr %16, align 4, !tbaa !11
  %.not20 = icmp eq i32 %34, 0
  br i1 %.not20, label %35, label %50

35:                                               ; preds = %33, %31
  call void @llvm.lifetime.start.p0(i64 1, ptr nonnull %3) #16
  %36 = call i32 (ptr, ptr, ...) @__isoc99_sscanf(ptr noundef nonnull %1, ptr noundef nonnull @.str, ptr noundef nonnull %0, ptr noundef nonnull %16, ptr noundef nonnull %3) #16
  %.not.i22 = icmp eq i32 %36, 2
  br i1 %.not.i22, label %44, label %37

37:                                               ; preds = %35
  call void @llvm.lifetime.start.p0(i64 8, ptr nonnull %4) #16
  %38 = call i32 @av_expr_parse_and_eval(ptr noundef nonnull %4, ptr noundef nonnull %1, ptr noundef null, ptr noundef null, ptr noundef null, ptr noundef null, ptr noundef null, ptr noundef null, ptr noundef null, i32 noundef 64, ptr noundef null) #16
  %39 = icmp sgt i32 %38, -1
  br i1 %39, label %40, label %av_parse_ratio.exit25

40:                                               ; preds = %37
  %41 = load double, ptr %4, align 8, !tbaa !4
  %42 = call i64 @av_d2q(double noundef %41, i32 noundef 2147483647) #17
  store i64 %42, ptr %0, align 4
  call void @llvm.lifetime.end.p0(i64 8, ptr nonnull %4) #16
  %43 = trunc i64 %42 to i32
  br label %av_parse_ratio.exit25.thread

44:                                               ; preds = %35
  %45 = load i32, ptr %0, align 4, !tbaa !8
  %46 = sext i32 %45 to i64
  %47 = load i32, ptr %16, align 4, !tbaa !11
  %48 = sext i32 %47 to i64
  %49 = call i32 @av_reduce(ptr noundef nonnull %0, ptr noundef nonnull %16, i64 noundef %46, i64 noundef %48, i64 noundef 2147483647) #16
  %.pr.pre = load i32, ptr %0, align 4, !tbaa !8
  br label %av_parse_ratio.exit25.thread

av_parse_ratio.exit25.thread:                     ; preds = %40, %44
  %.pr = phi i32 [ %43, %40 ], [ %.pr.pre, %44 ]
  call void @llvm.lifetime.end.p0(i64 1, ptr nonnull %3) #16
  br label %50

av_parse_ratio.exit25:                            ; preds = %37
  call void @llvm.lifetime.end.p0(i64 8, ptr nonnull %4) #16
  call void @llvm.lifetime.end.p0(i64 1, ptr nonnull %3) #16
  br label %55

50:                                               ; preds = %av_parse_ratio.exit25.thread, %33
  %51 = phi i32 [ %.pr, %av_parse_ratio.exit25.thread ], [ %32, %33 ]
  %52 = icmp slt i32 %51, 1
  br i1 %52, label %55, label %53

53:                                               ; preds = %50
  %54 = load i32, ptr %16, align 4, !tbaa !11
  %.inv = icmp sgt i32 %54, 0
  %spec.select = select i1 %.inv, i32 0, i32 -22
  br label %55

55:                                               ; preds = %av_parse_ratio.exit25, %av_parse_ratio.exit, %53, %50, %12
  %.0 = phi i32 [ 0, %12 ], [ %19, %av_parse_ratio.exit ], [ %38, %av_parse_ratio.exit25 ], [ -22, %50 ], [ %spec.select, %53 ]
  ret i32 %.0
}